; Function Attrs: nounwind uwtable
define dso_local ptr @unsorted_string_list_lookup(ptr noundef readonly captures(none) %0, ptr noundef %1) local_unnamed_addr #4 {
  %3 = getelementptr inbounds nuw i8, ptr %0, i64 32
  %4 = load ptr, ptr %3, align 8, !tbaa !12
  %.not = icmp eq ptr %4, null
  %spec.select = select i1 %.not, ptr @strcmp, ptr %4
  %5 = load ptr, ptr %0, align 8, !tbaa !13
  %.not1517 = icmp eq ptr %5, null
  br i1 %.not1517, label %.critedge, label %.lr.ph

.lr.ph:                                           ; preds = %2
  %6 = getelementptr inbounds nuw i8, ptr %0, i64 8
  %7 = load ptr, ptr %0, align 8, !tbaa !13
  %8 = load i64, ptr %6, align 8, !tbaa !4
  %9 = getelementptr inbounds nuw %struct.string_list_item, ptr %7, i64 %8
  %10 = icmp ult ptr %5, %9
  br i1 %10, label %.lr.ph24, label %.critedge

.lr.ph24:                                         ; preds = %.lr.ph, %13
  %.0131823 = phi ptr [ %14, %13 ], [ %5, %.lr.ph ]
  %11 = load ptr, ptr %.0131823, align 8, !tbaa !14
  %12 = tail call i32 %spec.select(ptr noundef %1, ptr noundef %11) #11
  %.not16 = icmp eq i32 %12, 0
  br i1 %.not16, label %.critedge, label %13

13:                                               ; preds = %.lr.ph24
  %14 = getelementptr inbounds nuw i8, ptr %.0131823, i64 16
  %15 = load ptr, ptr %0, align 8, !tbaa !13
  %16 = load i64, ptr %6, align 8, !tbaa !4
  %17 = getelementptr inbounds nuw %struct.string_list_item, ptr %15, i64 %16
  %18 = icmp ult ptr %14, %17
  br i1 %18, label %.lr.ph24, label %.critedge

.critedge:                                        ; preds = %13, %.lr.ph24, %.lr.ph, %2
  %.0 = phi ptr [ null, %2 ], [ null, %.lr.ph ], [ %.0131823, %.lr.ph24 ], [ null, %13 ]
  ret ptr %.0
}